; Function Attrs: nounwind uwtable
define internal fastcc void @update_frames(ptr %.32.val) unnamed_addr #0 {
  %1 = alloca %struct.ProgressFrame, align 8
  %2 = getelementptr inbounds nuw i8, ptr %.32.val, i64 88
  %3 = load i32, ptr %2, align 8, !tbaa !41
  %.not = icmp eq i32 %3, 0
  br i1 %.not, label %7, label %4

4:                                                ; preds = %0
  %5 = getelementptr inbounds nuw i8, ptr %.32.val, i64 40
  %6 = getelementptr inbounds nuw i8, ptr %.32.val, i64 72
  tail call void @ff_progress_frame_replace(ptr noundef nonnull %5, ptr noundef nonnull %6) #9
  br label %7

7:                                                ; preds = %4, %0
  %8 = getelementptr inbounds nuw i8, ptr %.32.val, i64 56
  tail call void @ff_progress_frame_unref(ptr noundef nonnull %8) #9
  call void @llvm.lifetime.start.p0(i64 16, ptr nonnull %1)
  %9 = getelementptr inbounds nuw i8, ptr %.32.val, i64 72
  call void @llvm.memcpy.p0.p0.i64(ptr noundef nonnull align 8 dereferenceable(16) %1, ptr noundef nonnull align 8 dereferenceable(16) %9, i64 16, i1 false), !tbaa.struct !46
  tail call void @llvm.memcpy.p0.p0.i64(ptr noundef nonnull align 8 dereferenceable(16) %9, ptr noundef nonnull align 8 dereferenceable(16) %8, i64 16, i1 false), !tbaa.struct !46
  call void @llvm.memcpy.p0.p0.i64(ptr noundef nonnull align 8 dereferenceable(16) %8, ptr noundef nonnull align 8 dereferenceable(16) %1, i64 16, i1 false), !tbaa.struct !46
  call void @llvm.lifetime.end.p0(i64 16, ptr nonnull %1)
  ret void
}